     1 00000000                                 [FORMAT "WCOFF"]
     2 00000000                                 [INSTRSET "i486p"]
     3 00000000                                 [OPTIMIZE 1]
     4 00000000                                 [OPTION 1]
     5 00000000                                 [BITS 32]
     6 00000000                                 	EXTERN	_sheet_alloc
     7 00000000                                 	EXTERN	_sheet_setbuf
     8 00000000                                 	EXTERN	_sheet_updown
     9 00000000                                 	EXTERN	_sheet_slide
    10 00000000                                 	EXTERN	_pacman
    11 00000000                                 	EXTERN	_put_figure_sht
    12 00000000                                 	EXTERN	_pac_changing
    13 00000000                                 	EXTERN	_ghost_angry_2
    14 00000000                                 	EXTERN	_ghost_2
    15 00000000                                 	EXTERN	_ghost_angry_1
    16 00000000                                 	EXTERN	_ghost_1
    17 00000000                                 	EXTERN	_check_boundary
    18 00000000                                 	EXTERN	_rand_indix
    19 00000000                                 	EXTERN	_fake_rand
    20 00000000                                 	EXTERN	_super
    21 00000000                                 [FILE "pacman.c"]
    22 00000000                                 	GLOBAL	_i
    23                                          [SECTION .data]
    24 00000000                                 	ALIGNB	4
    25 00000000                                 _i:
    26 00000000 00000000                        	DD	0
    27 00000004                                 	GLOBAL	_layer
    28 00000004                                 	ALIGNB	4
    29 00000004                                 _layer:
    30 00000004 00000002                        	DD	2
    31                                          [SECTION .text]
    32 00000000                                 	GLOBAL	_Set_Status
    33 00000000                                 _Set_Status:
    34 00000000 55                              	PUSH	EBP
    35 00000001 89 E5                           	MOV	EBP,ESP
    36 00000003 8B 45 08                        	MOV	EAX,DWORD [8+EBP]
    37 00000006 8B 55 0C                        	MOV	EDX,DWORD [12+EBP]
    38 00000009 89 90 000009C8                  	MOV	DWORD [2504+EAX],EDX
    39 0000000F 5D                              	POP	EBP
    40 00000010 C3                              	RET
    41 00000011                                 	GLOBAL	_Game_Init
    42 00000011                                 _Game_Init:
    43 00000011 55                              	PUSH	EBP
    44 00000012 89 E5                           	MOV	EBP,ESP
    45 00000014 8B 45 10                        	MOV	EAX,DWORD [16+EBP]
    46 00000017 8B 55 14                        	MOV	EDX,DWORD [20+EBP]
    47 0000001A 89 55 10                        	MOV	DWORD [16+EBP],EDX
    48 0000001D 89 45 0C                        	MOV	DWORD [12+EBP],EAX
    49 00000020 5D                              	POP	EBP
    50 00000021 EB 00                           	JMP	_Game_Start
    51 00000023                                 	GLOBAL	_Game_Start
    52 00000023                                 _Game_Start:
    53 00000023 55                              	PUSH	EBP
    54 00000024 89 E5                           	MOV	EBP,ESP
    55 00000026 8B 45 08                        	MOV	EAX,DWORD [8+EBP]
    56 00000029 C7 00 00000001                  	MOV	DWORD [EAX],1
    57 0000002F C7 40 04 00000001               	MOV	DWORD [4+EAX],1
    58 00000036 C7 40 08 00000000               	MOV	DWORD [8+EAX],0
    59 0000003D C7 40 0C 0000000A               	MOV	DWORD [12+EAX],10
    60 00000044 C7 40 10 0000000C               	MOV	DWORD [16+EAX],12
    61 0000004B C7 40 14 00000005               	MOV	DWORD [20+EAX],5
    62 00000052 C7 40 18 00000004               	MOV	DWORD [24+EAX],4
    63 00000059 C7 40 1C 00000005               	MOV	DWORD [28+EAX],5
    64 00000060 C7 40 20 00000000               	MOV	DWORD [32+EAX],0
    65 00000067 C7 40 24 00000000               	MOV	DWORD [36+EAX],0
    66 0000006E 5D                              	POP	EBP
    67 0000006F C3                              	RET
    68 00000070                                 	GLOBAL	_Game_Over
    69 00000070                                 _Game_Over:
    70 00000070 55                              	PUSH	EBP
    71 00000071 89 E5                           	MOV	EBP,ESP
    72 00000073 53                              	PUSH	EBX
    73 00000074 8B 5D 08                        	MOV	EBX,DWORD [8+EBP]
    74 00000077 53                              	PUSH	EBX
    75 00000078 E8 0000015D                     	CALL	_Pac_Show
    76 0000007D C7 83 000009C8 FFFFFFFF         	MOV	DWORD [2504+EBX],-1
    77 00000087 8B 5D FC                        	MOV	EBX,DWORD [-4+EBP]
    78 0000008A C9                              	LEAVE
    79 0000008B C3                              	RET
    80 0000008C                                 	GLOBAL	_Pac_Init
    81 0000008C                                 _Pac_Init:
    82 0000008C 55                              	PUSH	EBP
    83 0000008D 89 E5                           	MOV	EBP,ESP
    84 0000008F 57                              	PUSH	EDI
    85 00000090 56                              	PUSH	ESI
    86 00000091 53                              	PUSH	EBX
    87 00000092 50                              	PUSH	EAX
    88 00000093 8B 45 0C                        	MOV	EAX,DWORD [12+EBP]
    89 00000096 8B 5D 10                        	MOV	EBX,DWORD [16+EBP]
    90 00000099 8B 75 14                        	MOV	ESI,DWORD [20+EBP]
    91 0000009C 8B 7D 18                        	MOV	EDI,DWORD [24+EBP]
    92 0000009F 89 45 F0                        	MOV	DWORD [-16+EBP],EAX
    93 000000A2 FF 75 08                        	PUSH	DWORD [8+EBP]
    94 000000A5 E8 [00000000]                   	CALL	_sheet_alloc
    95 000000AA 8D 53 04                        	LEA	EDX,DWORD [4+EBX]
    96 000000AD 89 03                           	MOV	DWORD [EBX],EAX
    97 000000AF 6A 00                           	PUSH	0
    98 000000B1 6A 32                           	PUSH	50
    99 000000B3 6A 32                           	PUSH	50
   100 000000B5 52                              	PUSH	EDX
   101 000000B6 50                              	PUSH	EAX
   102 000000B7 E8 [00000000]                   	CALL	_sheet_setbuf
   103 000000BC 6A FF                           	PUSH	-1
   104 000000BE FF 33                           	PUSH	DWORD [EBX]
   105 000000C0 E8 [00000000]                   	CALL	_sheet_updown
   106 000000C5 83 C4 20                        	ADD	ESP,32
   107 000000C8 57                              	PUSH	EDI
   108 000000C9 56                              	PUSH	ESI
   109 000000CA FF 33                           	PUSH	DWORD [EBX]
   110 000000CC E8 [00000000]                   	CALL	_sheet_slide
   111 000000D1 83 C4 0C                        	ADD	ESP,12
   112 000000D4 C6 83 000009D0 03               	MOV	BYTE [2512+EBX],3
   113 000000DB 8B 03                           	MOV	EAX,DWORD [EBX]
   114 000000DD 8B 55 F0                        	MOV	EDX,DWORD [-16+EBP]
   115 000000E0 C7 83 000009C8 00000001         	MOV	DWORD [2504+EBX],1
   116 000000EA C7 83 000009CC 00000001         	MOV	DWORD [2508+EBX],1
   117 000000F4 89 B3 000009D4                  	MOV	DWORD [2516+EBX],ESI
   118 000000FA 89 BB 000009D8                  	MOV	DWORD [2520+EBX],EDI
   119 00000100 89 B3 000009DC                  	MOV	DWORD [2524+EBX],ESI
   120 00000106 89 BB 000009E0                  	MOV	DWORD [2528+EBX],EDI
   121 0000010C 89 70 0C                        	MOV	DWORD [12+EAX],ESI
   122 0000010F 89 78 10                        	MOV	DWORD [16+EAX],EDI
   123 00000112 C7 83 000009E4 00000000         	MOV	DWORD [2532+EBX],0
   124 0000011C 8B 42 0C                        	MOV	EAX,DWORD [12+EDX]
   125 0000011F 89 83 000009E8                  	MOV	DWORD [2536+EBX],EAX
   126 00000125 89 5D 08                        	MOV	DWORD [8+EBP],EBX
   127 00000128 8D 65 F4                        	LEA	ESP,DWORD [-12+EBP]
   128 0000012B 5B                              	POP	EBX
   129 0000012C 5E                              	POP	ESI
   130 0000012D 5F                              	POP	EDI
   131 0000012E 5D                              	POP	EBP
   132 0000012F E9 000000A6                     	JMP	_Pac_Show
   133 00000134                                 	GLOBAL	_Gho_Init
   134 00000134                                 _Gho_Init:
   135 00000134 55                              	PUSH	EBP
   136 00000135 89 E5                           	MOV	EBP,ESP
   137 00000137 57                              	PUSH	EDI
   138 00000138 56                              	PUSH	ESI
   139 00000139 53                              	PUSH	EBX
   140 0000013A 52                              	PUSH	EDX
   141 0000013B 52                              	PUSH	EDX
   142 0000013C 8B 55 1C                        	MOV	EDX,DWORD [28+EBP]
   143 0000013F 8B 45 0C                        	MOV	EAX,DWORD [12+EBP]
   144 00000142 8B 5D 10                        	MOV	EBX,DWORD [16+EBP]
   145 00000145 8B 75 14                        	MOV	ESI,DWORD [20+EBP]
   146 00000148 8B 7D 18                        	MOV	EDI,DWORD [24+EBP]
   147 0000014B 89 55 EC                        	MOV	DWORD [-20+EBP],EDX
   148 0000014E 89 45 F0                        	MOV	DWORD [-16+EBP],EAX
   149 00000151 FF 75 08                        	PUSH	DWORD [8+EBP]
   150 00000154 E8 [00000000]                   	CALL	_sheet_alloc
   151 00000159 8D 53 04                        	LEA	EDX,DWORD [4+EBX]
   152 0000015C 89 03                           	MOV	DWORD [EBX],EAX
   153 0000015E 6A 00                           	PUSH	0
   154 00000160 6A 32                           	PUSH	50
   155 00000162 6A 32                           	PUSH	50
   156 00000164 52                              	PUSH	EDX
   157 00000165 50                              	PUSH	EAX
   158 00000166 E8 [00000000]                   	CALL	_sheet_setbuf
   159 0000016B 6A FF                           	PUSH	-1
   160 0000016D FF 33                           	PUSH	DWORD [EBX]
   161 0000016F E8 [00000000]                   	CALL	_sheet_updown
   162 00000174 83 C4 20                        	ADD	ESP,32
   163 00000177 57                              	PUSH	EDI
   164 00000178 56                              	PUSH	ESI
   165 00000179 FF 33                           	PUSH	DWORD [EBX]
   166 0000017B E8 [00000000]                   	CALL	_sheet_slide
   167 00000180 83 C4 0C                        	ADD	ESP,12
   168 00000183 8A 45 EC                        	MOV	AL,BYTE [-20+EBP]
   169 00000186 89 B3 000009D4                  	MOV	DWORD [2516+EBX],ESI
   170 0000018C 88 83 000009D0                  	MOV	BYTE [2512+EBX],AL
   171 00000192 89 BB 000009D8                  	MOV	DWORD [2520+EBX],EDI
   172 00000198 8B 55 F0                        	MOV	EDX,DWORD [-16+EBP]
   173 0000019B 89 B3 000009DC                  	MOV	DWORD [2524+EBX],ESI
   174 000001A1 C7 83 000009C8 00000000         	MOV	DWORD [2504+EBX],0
   175 000001AB C7 83 000009CC 00000001         	MOV	DWORD [2508+EBX],1
   176 000001B5 89 BB 000009E0                  	MOV	DWORD [2528+EBX],EDI
   177 000001BB C7 83 000009E4 00000000         	MOV	DWORD [2532+EBX],0
   178 000001C5 8B 42 10                        	MOV	EAX,DWORD [16+EDX]
   179 000001C8 89 83 000009E8                  	MOV	DWORD [2536+EBX],EAX
   180 000001CE 89 5D 08                        	MOV	DWORD [8+EBP],EBX
   181 000001D1 8D 65 F4                        	LEA	ESP,DWORD [-12+EBP]
   182 000001D4 5B                              	POP	EBX
   183 000001D5 5E                              	POP	ESI
   184 000001D6 5F                              	POP	EDI
   185 000001D7 5D                              	POP	EBP
   186 000001D8 EB 4F                           	JMP	_Gho_Show
   187 000001DA                                 	GLOBAL	_Pac_Show
   188 000001DA                                 _Pac_Show:
   189 000001DA 55                              	PUSH	EBP
   190 000001DB 89 E5                           	MOV	EBP,ESP
   191 000001DD 53                              	PUSH	EBX
   192 000001DE 8B 5D 08                        	MOV	EBX,DWORD [8+EBP]
   193 000001E1 83 BB 000009C8 FF               	CMP	DWORD [2504+EBX],-1
   194 000001E8 74 3A                           	JE	L7
   195 000001EA FF B3 000009E4                  	PUSH	DWORD [2532+EBX]
   196 000001F0 0F B6 83 000009D0               	MOVZX	EAX,BYTE [2512+EBX]
   197 000001F7 50                              	PUSH	EAX
   198 000001F8 6A 00                           	PUSH	0
   199 000001FA 6A 32                           	PUSH	50
   200 000001FC 6A 32                           	PUSH	50
   201 000001FE 68 [00000000]                   	PUSH	_pacman
   202 00000203 6A 00                           	PUSH	0
   203 00000205 6A 00                           	PUSH	0
   204 00000207 FF 33                           	PUSH	DWORD [EBX]
   205 00000209 E8 [00000000]                   	CALL	_put_figure_sht
   206 0000020E 83 C4 24                        	ADD	ESP,36
   207 00000211 FF B3 000009E0                  	PUSH	DWORD [2528+EBX]
   208 00000217 FF B3 000009DC                  	PUSH	DWORD [2524+EBX]
   209 0000021D FF 33                           	PUSH	DWORD [EBX]
   210 0000021F E8 [00000000]                   	CALL	_sheet_slide
   211 00000224                                 L7:
   212 00000224 8B 5D FC                        	MOV	EBX,DWORD [-4+EBP]
   213 00000227 C9                              	LEAVE
   214 00000228 C3                              	RET
   215 00000229                                 	GLOBAL	_Gho_Show
   216 00000229                                 _Gho_Show:
   217 00000229 55                              	PUSH	EBP
   218 0000022A 89 E5                           	MOV	EBP,ESP
   219 0000022C 53                              	PUSH	EBX
   220 0000022D 8B 5D 08                        	MOV	EBX,DWORD [8+EBP]
   221 00000230 83 BB 000009C8 FF               	CMP	DWORD [2504+EBX],-1
   222 00000237 74 2B                           	JE	L9
   223 00000239 83 3D [00000000] 01             	CMP	DWORD [_pac_changing],1
   224 00000240 74 6B                           	JE	L20
   225 00000242 8B 83 000009CC                  	MOV	EAX,DWORD [2508+EBX]
   226 00000248 83 F8 01                        	CMP	EAX,1
   227 0000024B 74 45                           	JE	L21
   228 0000024D 85 C0                           	TEST	EAX,EAX
   229 0000024F 74 18                           	JE	L22
   230 00000251                                 L15:
   231 00000251 FF B3 000009E0                  	PUSH	DWORD [2528+EBX]
   232 00000257 FF B3 000009DC                  	PUSH	DWORD [2524+EBX]
   233 0000025D FF 33                           	PUSH	DWORD [EBX]
   234 0000025F E8 [00000000]                   	CALL	_sheet_slide
   235 00000264                                 L9:
   236 00000264 8B 5D FC                        	MOV	EBX,DWORD [-4+EBP]
   237 00000267 C9                              	LEAVE
   238 00000268 C3                              	RET
   239 00000269                                 L22:
   240 00000269 FF B3 000009E4                  	PUSH	DWORD [2532+EBX]
   241 0000026F 0F B6 83 000009D0               	MOVZX	EAX,BYTE [2512+EBX]
   242 00000276 50                              	PUSH	EAX
   243 00000277 6A 00                           	PUSH	0
   244 00000279 6A 32                           	PUSH	50
   245 0000027B 6A 32                           	PUSH	50
   246 0000027D 68 [00000000]                   	PUSH	_ghost_angry_2
   247 00000282                                 L19:
   248 00000282 6A 00                           	PUSH	0
   249 00000284 6A 00                           	PUSH	0
   250 00000286 FF 33                           	PUSH	DWORD [EBX]
   251 00000288 E8 [00000000]                   	CALL	_put_figure_sht
   252 0000028D 83 C4 24                        	ADD	ESP,36
   253 00000290 EB BF                           	JMP	L15
   254 00000292                                 L21:
   255 00000292 FF B3 000009E4                  	PUSH	DWORD [2532+EBX]
   256 00000298 0F B6 83 000009D0               	MOVZX	EAX,BYTE [2512+EBX]
   257 0000029F 50                              	PUSH	EAX
   258 000002A0 6A 00                           	PUSH	0
   259 000002A2 6A 32                           	PUSH	50
   260 000002A4 6A 32                           	PUSH	50
   261 000002A6 68 [00000000]                   	PUSH	_ghost_2
   262 000002AB EB D5                           	JMP	L19
   263 000002AD                                 L20:
   264 000002AD 8B 83 000009CC                  	MOV	EAX,DWORD [2508+EBX]
   265 000002B3 83 F8 01                        	CMP	EAX,1
   266 000002B6 74 1F                           	JE	L23
   267 000002B8 85 C0                           	TEST	EAX,EAX
   268 000002BA 75 95                           	JNE	L15
   269 000002BC FF B3 000009E4                  	PUSH	DWORD [2532+EBX]
   270 000002C2 0F B6 83 000009D0               	MOVZX	EAX,BYTE [2512+EBX]
   271 000002C9 50                              	PUSH	EAX
   272 000002CA 6A 00                           	PUSH	0
   273 000002CC 6A 32                           	PUSH	50
   274 000002CE 6A 32                           	PUSH	50
   275 000002D0 68 [00000000]                   	PUSH	_ghost_angry_1
   276 000002D5 EB AB                           	JMP	L19
   277 000002D7                                 L23:
   278 000002D7 FF B3 000009E4                  	PUSH	DWORD [2532+EBX]
   279 000002DD 0F B6 83 000009D0               	MOVZX	EAX,BYTE [2512+EBX]
   280 000002E4 50                              	PUSH	EAX
   281 000002E5 6A 00                           	PUSH	0
   282 000002E7 6A 32                           	PUSH	50
   283 000002E9 6A 32                           	PUSH	50
   284 000002EB 68 [00000000]                   	PUSH	_ghost_1
   285 000002F0 EB 90                           	JMP	L19
   286 000002F2                                 	GLOBAL	_Pac_Move
   287 000002F2                                 _Pac_Move:
   288 000002F2 55                              	PUSH	EBP
   289 000002F3 89 E5                           	MOV	EBP,ESP
   290 000002F5 56                              	PUSH	ESI
   291 000002F6 53                              	PUSH	EBX
   292 000002F7 8B 5D 0C                        	MOV	EBX,DWORD [12+EBP]
   293 000002FA 8B 75 08                        	MOV	ESI,DWORD [8+EBP]
   294 000002FD 8B 03                           	MOV	EAX,DWORD [EBX]
   295 000002FF 8B 93 000009E4                  	MOV	EDX,DWORD [2532+EBX]
   296 00000305 83 FA 01                        	CMP	EDX,1
   297 00000308 8B 48 0C                        	MOV	ECX,DWORD [12+EAX]
   298 0000030B 89 8B 000009DC                  	MOV	DWORD [2524+EBX],ECX
   299 00000311 8B 40 10                        	MOV	EAX,DWORD [16+EAX]
   300 00000314 89 83 000009E0                  	MOV	DWORD [2528+EBX],EAX
   301 0000031A 0F 84 00000140                  	JE	L54
   302 00000320 83 FA FF                        	CMP	EDX,-1
   303 00000323 0F 84 00000126                  	JE	L55
   304 00000329 83 FA 02                        	CMP	EDX,2
   305 0000032C 0F 84 00000115                  	JE	L56
   306 00000332 83 FA FE                        	CMP	EDX,-2
   307 00000335 0F 84 000000FB                  	JE	L57
   308 0000033B                                 L26:
   309 0000033B 8B 83 000009DC                  	MOV	EAX,DWORD [2524+EBX]
   310 00000341 83 F8 0B                        	CMP	EAX,11
   311 00000344 0F 8F 000000CF                  	JG	L34
   312 0000034A C7 83 000009DC 0000000C         	MOV	DWORD [2524+EBX],12
   313 00000354                                 L35:
   314 00000354 8B 83 000009E0                  	MOV	EAX,DWORD [2528+EBX]
   315 0000035A 83 F8 1E                        	CMP	EAX,30
   316 0000035D 0F 8F 00000099                  	JG	L37
   317 00000363 C7 83 000009E0 0000001F         	MOV	DWORD [2528+EBX],31
   318 0000036D                                 L38:
   319 0000036D FF B3 000009E0                  	PUSH	DWORD [2528+EBX]
   320 00000373 FF B3 000009DC                  	PUSH	DWORD [2524+EBX]
   321 00000379 56                              	PUSH	ESI
   322 0000037A E8 [00000000]                   	CALL	_check_boundary
   323 0000037F 83 C4 0C                        	ADD	ESP,12
   324 00000382 83 F8 01                        	CMP	EAX,1
   325 00000385 74 17                           	JE	L41
   326 00000387 40                              	INC	EAX
   327 00000388 74 22                           	JE	L43
   328 0000038A 8B 03                           	MOV	EAX,DWORD [EBX]
   329 0000038C 8B 50 0C                        	MOV	EDX,DWORD [12+EAX]
   330 0000038F 89 93 000009DC                  	MOV	DWORD [2524+EBX],EDX
   331 00000395 8B 40 10                        	MOV	EAX,DWORD [16+EAX]
   332 00000398 89 83 000009E0                  	MOV	DWORD [2528+EBX],EAX
   333 0000039E                                 L41:
   334 0000039E 89 5D 08                        	MOV	DWORD [8+EBP],EBX
   335 000003A1 8D 65 F8                        	LEA	ESP,DWORD [-8+EBP]
   336 000003A4 5B                              	POP	EBX
   337 000003A5 5E                              	POP	ESI
   338 000003A6 5D                              	POP	EBP
   339 000003A7 E9 FFFFFE2E                     	JMP	_Pac_Show
   340 000003AC                                 L43:
   341 000003AC FF B3 000009E0                  	PUSH	DWORD [2528+EBX]
   342 000003B2 FF B3 000009DC                  	PUSH	DWORD [2524+EBX]
   343 000003B8 56                              	PUSH	ESI
   344 000003B9 E8 [00000000]                   	CALL	_check_boundary
   345 000003BE 83 C4 0C                        	ADD	ESP,12
   346 000003C1 48                              	DEC	EAX
   347 000003C2 74 DA                           	JE	L41
   348 000003C4 8B 83 000009E4                  	MOV	EAX,DWORD [2532+EBX]
   349 000003CA 83 F8 FE                        	CMP	EAX,-2
   350 000003CD 74 25                           	JE	L60
   351 000003CF                                 L46:
   352 000003CF 83 F8 FF                        	CMP	EAX,-1
   353 000003D2 74 18                           	JE	L61
   354 000003D4                                 L47:
   355 000003D4 83 F8 02                        	CMP	EAX,2
   356 000003D7 74 0B                           	JE	L62
   357 000003D9                                 L48:
   358 000003D9 48                              	DEC	EAX
   359 000003DA 75 D0                           	JNE	L43
   360 000003DC FF 83 000009E0                  	INC	DWORD [2528+EBX]
   361 000003E2 EB C8                           	JMP	L43
   362 000003E4                                 L62:
   363 000003E4 FF 83 000009DC                  	INC	DWORD [2524+EBX]
   364 000003EA EB ED                           	JMP	L48
   365 000003EC                                 L61:
   366 000003EC FF 8B 000009E0                  	DEC	DWORD [2528+EBX]
   367 000003F2 EB E0                           	JMP	L47
   368 000003F4                                 L60:
   369 000003F4 FF 8B 000009DC                  	DEC	DWORD [2524+EBX]
   370 000003FA EB D3                           	JMP	L46
   371 000003FC                                 L37:
   372 000003FC 83 C0 32                        	ADD	EAX,50
   373 000003FF 3D 000002DB                     	CMP	EAX,731
   374 00000404 0F 8E FFFFFF63                  	JLE	L38
   375 0000040A C7 83 000009E0 000002A9         	MOV	DWORD [2528+EBX],681
   376 00000414 E9 FFFFFF54                     	JMP	L38
   377 00000419                                 L34:
   378 00000419 83 C0 32                        	ADD	EAX,50
   379 0000041C 3D 0000032C                     	CMP	EAX,812
   380 00000421 0F 8E FFFFFF2D                  	JLE	L35
   381 00000427 C7 83 000009DC 000002FA         	MOV	DWORD [2524+EBX],762
   382 00000431 E9 FFFFFF1E                     	JMP	L35
   383 00000436                                 L57:
   384 00000436 03 8B 000009E8                  	ADD	ECX,DWORD [2536+EBX]
   385 0000043C                                 L52:
   386 0000043C 89 8B 000009DC                  	MOV	DWORD [2524+EBX],ECX
   387 00000442 E9 FFFFFEF4                     	JMP	L26
   388 00000447                                 L56:
   389 00000447 2B 8B 000009E8                  	SUB	ECX,DWORD [2536+EBX]
   390 0000044D EB ED                           	JMP	L52
   391 0000044F                                 L55:
   392 0000044F 03 83 000009E8                  	ADD	EAX,DWORD [2536+EBX]
   393 00000455                                 L53:
   394 00000455 89 83 000009E0                  	MOV	DWORD [2528+EBX],EAX
   395 0000045B E9 FFFFFEDB                     	JMP	L26
   396 00000460                                 L54:
   397 00000460 2B 83 000009E8                  	SUB	EAX,DWORD [2536+EBX]
   398 00000466 EB ED                           	JMP	L53
   399 00000468                                 	GLOBAL	_Gho_Move
   400 00000468                                 _Gho_Move:
   401 00000468 55                              	PUSH	EBP
   402 00000469 89 E5                           	MOV	EBP,ESP
   403 0000046B 56                              	PUSH	ESI
   404 0000046C 53                              	PUSH	EBX
   405 0000046D 8B 5D 0C                        	MOV	EBX,DWORD [12+EBP]
   406 00000470 8B 75 08                        	MOV	ESI,DWORD [8+EBP]
   407 00000473 8B 03                           	MOV	EAX,DWORD [EBX]
   408 00000475 8B 93 000009E4                  	MOV	EDX,DWORD [2532+EBX]
   409 0000047B 83 FA 01                        	CMP	EDX,1
   410 0000047E 8B 48 0C                        	MOV	ECX,DWORD [12+EAX]
   411 00000481 89 8B 000009DC                  	MOV	DWORD [2524+EBX],ECX
   412 00000487 8B 40 10                        	MOV	EAX,DWORD [16+EAX]
   413 0000048A 89 83 000009E0                  	MOV	DWORD [2528+EBX],EAX
   414 00000490 0F 84 0000019A                  	JE	L100
   415 00000496 83 FA FF                        	CMP	EDX,-1
   416 00000499 0F 84 00000180                  	JE	L101
   417 0000049F 83 FA 02                        	CMP	EDX,2
   418 000004A2 0F 84 0000016F                  	JE	L102
   419 000004A8 83 FA FE                        	CMP	EDX,-2
   420 000004AB 0F 84 00000155                  	JE	L103
   421 000004B1                                 L65:
   422 000004B1 8B 83 000009DC                  	MOV	EAX,DWORD [2524+EBX]
   423 000004B7 83 F8 0B                        	CMP	EAX,11
   424 000004BA 0F 8F 00000129                  	JG	L73
   425 000004C0 C7 83 000009DC 0000000C         	MOV	DWORD [2524+EBX],12
   426 000004CA                                 L74:
   427 000004CA 8B 83 000009E0                  	MOV	EAX,DWORD [2528+EBX]
   428 000004D0 83 F8 1E                        	CMP	EAX,30
   429 000004D3 0F 8F 000000F3                  	JG	L76
   430 000004D9 C7 83 000009E0 0000001F         	MOV	DWORD [2528+EBX],31
   431 000004E3                                 L77:
   432 000004E3 FF B3 000009E0                  	PUSH	DWORD [2528+EBX]
   433 000004E9 FF B3 000009DC                  	PUSH	DWORD [2524+EBX]
   434 000004EF 56                              	PUSH	ESI
   435 000004F0 E8 [00000000]                   	CALL	_check_boundary
   436 000004F5 83 C4 0C                        	ADD	ESP,12
   437 000004F8 83 F8 01                        	CMP	EAX,1
   438 000004FB 74 1D                           	JE	L80
   439 000004FD 40                              	INC	EAX
   440 000004FE 74 28                           	JE	L82
   441 00000500 8B 03                           	MOV	EAX,DWORD [EBX]
   442 00000502 8B 50 0C                        	MOV	EDX,DWORD [12+EAX]
   443 00000505 89 93 000009DC                  	MOV	DWORD [2524+EBX],EDX
   444 0000050B 8B 40 10                        	MOV	EAX,DWORD [16+EAX]
   445 0000050E F7 9B 000009E4                  	NEG	DWORD [2532+EBX]
   446 00000514 89 83 000009E0                  	MOV	DWORD [2528+EBX],EAX
   447 0000051A                                 L80:
   448 0000051A 89 5D 08                        	MOV	DWORD [8+EBP],EBX
   449 0000051D 8D 65 F8                        	LEA	ESP,DWORD [-8+EBP]
   450 00000520 5B                              	POP	EBX
   451 00000521 5E                              	POP	ESI
   452 00000522 5D                              	POP	EBP
   453 00000523 E9 FFFFFD01                     	JMP	_Gho_Show
   454 00000528                                 L82:
   455 00000528 FF B3 000009E0                  	PUSH	DWORD [2528+EBX]
   456 0000052E FF B3 000009DC                  	PUSH	DWORD [2524+EBX]
   457 00000534 56                              	PUSH	ESI
   458 00000535 E8 [00000000]                   	CALL	_check_boundary
   459 0000053A 83 C4 0C                        	ADD	ESP,12
   460 0000053D 48                              	DEC	EAX
   461 0000053E 74 38                           	JE	L105
   462 00000540 8B 83 000009E4                  	MOV	EAX,DWORD [2532+EBX]
   463 00000546 83 F8 FE                        	CMP	EAX,-2
   464 00000549 74 25                           	JE	L106
   465 0000054B                                 L85:
   466 0000054B 83 F8 FF                        	CMP	EAX,-1
   467 0000054E 74 18                           	JE	L107
   468 00000550                                 L86:
   469 00000550 83 F8 02                        	CMP	EAX,2
   470 00000553 74 0B                           	JE	L108
   471 00000555                                 L87:
   472 00000555 48                              	DEC	EAX
   473 00000556 75 D0                           	JNE	L82
   474 00000558 FF 83 000009E0                  	INC	DWORD [2528+EBX]
   475 0000055E EB C8                           	JMP	L82
   476 00000560                                 L108:
   477 00000560 FF 83 000009DC                  	INC	DWORD [2524+EBX]
   478 00000566 EB ED                           	JMP	L87
   479 00000568                                 L107:
   480 00000568 FF 8B 000009E0                  	DEC	DWORD [2528+EBX]
   481 0000056E EB E0                           	JMP	L86
   482 00000570                                 L106:
   483 00000570 FF 8B 000009DC                  	DEC	DWORD [2524+EBX]
   484 00000576 EB D3                           	JMP	L85
   485 00000578                                 L105:
   486 00000578 8B 83 000009E4                  	MOV	EAX,DWORD [2532+EBX]
   487 0000057E 83 F8 02                        	CMP	EAX,2
   488 00000581 74 3A                           	JE	L109
   489 00000583 83 F8 FE                        	CMP	EAX,-2
   490 00000586 74 26                           	JE	L110
   491 00000588 83 F8 01                        	CMP	EAX,1
   492 0000058B 74 12                           	JE	L111
   493 0000058D 40                              	INC	EAX
   494 0000058E 75 8A                           	JNE	L80
   495 00000590 C7 83 000009E4 FFFFFFFE         	MOV	DWORD [2532+EBX],-2
   496 0000059A E9 FFFFFF7B                     	JMP	L80
   497 0000059F                                 L111:
   498 0000059F C7 83 000009E4 00000002         	MOV	DWORD [2532+EBX],2
   499 000005A9 E9 FFFFFF6C                     	JMP	L80
   500 000005AE                                 L110:
   501 000005AE C7 83 000009E4 FFFFFFFF         	MOV	DWORD [2532+EBX],-1
   502 000005B8 E9 FFFFFF5D                     	JMP	L80
   503 000005BD                                 L109:
   504 000005BD C7 83 000009E4 00000001         	MOV	DWORD [2532+EBX],1
   505 000005C7 E9 FFFFFF4E                     	JMP	L80
   506 000005CC                                 L76:
   507 000005CC 83 C0 32                        	ADD	EAX,50
   508 000005CF 3D 000002DB                     	CMP	EAX,731
   509 000005D4 0F 8E FFFFFF09                  	JLE	L77
   510 000005DA C7 83 000009E0 000002A9         	MOV	DWORD [2528+EBX],681
   511 000005E4 E9 FFFFFEFA                     	JMP	L77
   512 000005E9                                 L73:
   513 000005E9 83 C0 32                        	ADD	EAX,50
   514 000005EC 3D 0000032C                     	CMP	EAX,812
   515 000005F1 0F 8E FFFFFED3                  	JLE	L74
   516 000005F7 C7 83 000009DC 000002FA         	MOV	DWORD [2524+EBX],762
   517 00000601 E9 FFFFFEC4                     	JMP	L74
   518 00000606                                 L103:
   519 00000606 03 8B 000009E8                  	ADD	ECX,DWORD [2536+EBX]
   520 0000060C                                 L98:
   521 0000060C 89 8B 000009DC                  	MOV	DWORD [2524+EBX],ECX
   522 00000612 E9 FFFFFE9A                     	JMP	L65
   523 00000617                                 L102:
   524 00000617 2B 8B 000009E8                  	SUB	ECX,DWORD [2536+EBX]
   525 0000061D EB ED                           	JMP	L98
   526 0000061F                                 L101:
   527 0000061F 03 83 000009E8                  	ADD	EAX,DWORD [2536+EBX]
   528 00000625                                 L99:
   529 00000625 89 83 000009E0                  	MOV	DWORD [2528+EBX],EAX
   530 0000062B E9 FFFFFE81                     	JMP	L65
   531 00000630                                 L100:
   532 00000630 2B 83 000009E8                  	SUB	EAX,DWORD [2536+EBX]
   533 00000636 EB ED                           	JMP	L99
   534 00000638                                 	GLOBAL	_Pac_Die
   535 00000638                                 _Pac_Die:
   536 00000638 55                              	PUSH	EBP
   537 00000639 89 E5                           	MOV	EBP,ESP
   538 0000063B 8B 55 08                        	MOV	EDX,DWORD [8+EBP]
   539 0000063E C6 82 000009D0 08               	MOV	BYTE [2512+EDX],8
   540 00000645 C7 82 000009E8 00000000         	MOV	DWORD [2536+EDX],0
   541 0000064F C7 82 000009CC FFFFFFFF         	MOV	DWORD [2508+EDX],-1
   542 00000659 89 55 08                        	MOV	DWORD [8+EBP],EDX
   543 0000065C 5D                              	POP	EBP
   544 0000065D E9 FFFFFA0E                     	JMP	_Game_Over
   545 00000662                                 	GLOBAL	_Gho_Die
   546 00000662                                 _Gho_Die:
   547 00000662 55                              	PUSH	EBP
   548 00000663 89 E5                           	MOV	EBP,ESP
   549 00000665 53                              	PUSH	EBX
   550 00000666 8B 5D 08                        	MOV	EBX,DWORD [8+EBP]
   551 00000669 C7 83 000009CC 00000000         	MOV	DWORD [2508+EBX],0
   552 00000673 C6 83 000009D0 08               	MOV	BYTE [2512+EBX],8
   553 0000067A C7 83 000009E8 00000000         	MOV	DWORD [2536+EBX],0
   554 00000684 53                              	PUSH	EBX
   555 00000685 E8 FFFFFB9F                     	CALL	_Gho_Show
   556 0000068A C7 83 000009C8 FFFFFFFF         	MOV	DWORD [2504+EBX],-1
   557 00000694 8B 5D FC                        	MOV	EBX,DWORD [-4+EBP]
   558 00000697 C9                              	LEAVE
   559 00000698 C3                              	RET
   560 00000699                                 	GLOBAL	_Pac_Meet_Ghost
   561 00000699                                 _Pac_Meet_Ghost:
   562 00000699 55                              	PUSH	EBP
   563 0000069A 89 E5                           	MOV	EBP,ESP
   564 0000069C 57                              	PUSH	EDI
   565 0000069D 56                              	PUSH	ESI
   566 0000069E 53                              	PUSH	EBX
   567 0000069F 83 EC 1C                        	SUB	ESP,28
   568 000006A2 8B 7D 10                        	MOV	EDI,DWORD [16+EBP]
   569 000006A5 83 BF 000009C8 FF               	CMP	DWORD [2504+EDI],-1
   570 000006AC 0F 84 000000A1                  	JE	L119
   571 000006B2 8B 45 0C                        	MOV	EAX,DWORD [12+EBP]
   572 000006B5 BB 00000002                     	MOV	EBX,2
   573 000006BA 8B 00                           	MOV	EAX,DWORD [EAX]
   574 000006BC 89 45 DC                        	MOV	DWORD [-36+EBP],EAX
   575 000006BF 8B 48 0C                        	MOV	ECX,DWORD [12+EAX]
   576 000006C2 83 C1 32                        	ADD	ECX,50
   577 000006C5 89 C8                           	MOV	EAX,ECX
   578 000006C7 B9 00000002                     	MOV	ECX,2
   579 000006CC 99                              	CDQ
   580 000006CD F7 FB                           	IDIV	EBX
   581 000006CF 89 C6                           	MOV	ESI,EAX
   582 000006D1 8B 45 DC                        	MOV	EAX,DWORD [-36+EBP]
   583 000006D4 8B 58 10                        	MOV	EBX,DWORD [16+EAX]
   584 000006D7 83 C3 32                        	ADD	EBX,50
   585 000006DA 89 D8                           	MOV	EAX,EBX
   586 000006DC 8B 1F                           	MOV	EBX,DWORD [EDI]
   587 000006DE 99                              	CDQ
   588 000006DF F7 F9                           	IDIV	ECX
   589 000006E1 89 45 D8                        	MOV	DWORD [-40+EBP],EAX
   590 000006E4 8B 43 0C                        	MOV	EAX,DWORD [12+EBX]
   591 000006E7 83 C0 32                        	ADD	EAX,50
   592 000006EA 99                              	CDQ
   593 000006EB 89 45 EC                        	MOV	DWORD [-20+EBP],EAX
   594 000006EE F7 F9                           	IDIV	ECX
   595 000006F0 8B 4B 10                        	MOV	ECX,DWORD [16+EBX]
   596 000006F3 89 45 E8                        	MOV	DWORD [-24+EBP],EAX
   597 000006F6 83 C1 32                        	ADD	ECX,50
   598 000006F9 BB 00000002                     	MOV	EBX,2
   599 000006FE 89 C8                           	MOV	EAX,ECX
   600 00000700 2B 75 E8                        	SUB	ESI,DWORD [-24+EBP]
   601 00000703 99                              	CDQ
   602 00000704 F7 FB                           	IDIV	EBX
   603 00000706 29 45 D8                        	SUB	DWORD [-40+EBP],EAX
   604 00000709 8B 45 D8                        	MOV	EAX,DWORD [-40+EBP]
   605 0000070C 0F AF C0                        	IMUL	EAX,EAX
   606 0000070F 0F AF F6                        	IMUL	ESI,ESI
   607 00000712 89 45 D8                        	MOV	DWORD [-40+EBP],EAX
   608 00000715 8D 04 30                        	LEA	EAX,DWORD [EAX+ESI*1]
   609 00000718 3D 000000F9                     	CMP	EAX,249
   610 0000071D 7F 15                           	JG	L114
   611 0000071F 8B 55 08                        	MOV	EDX,DWORD [8+EBP]
   612 00000722 83 7A 04 01                     	CMP	DWORD [4+EDX],1
   613 00000726 74 14                           	JE	L120
   614 00000728 57                              	PUSH	EDI
   615 00000729 FF 75 0C                        	PUSH	DWORD [12+EBP]
   616 0000072C E8 FFFFFF07                     	CALL	_Pac_Die
   617 00000731 83 C8 FF                        	OR	EAX,-1
   618 00000734                                 L114:
   619 00000734 8D 65 F4                        	LEA	ESP,DWORD [-12+EBP]
   620 00000737 5B                              	POP	EBX
   621 00000738 5E                              	POP	ESI
   622 00000739 5F                              	POP	EDI
   623 0000073A 5D                              	POP	EBP
   624 0000073B C3                              	RET
   625 0000073C                                 L120:
   626 0000073C 57                              	PUSH	EDI
   627 0000073D E8 FFFFFF20                     	CALL	_Gho_Die
   628 00000742 B8 00000001                     	MOV	EAX,1
   629 00000747 8B 4D 08                        	MOV	ECX,DWORD [8+EBP]
   630 0000074A 81 41 24 000000C8               	ADD	DWORD [36+ECX],200
   631 00000751 EB E1                           	JMP	L114
   632 00000753                                 L119:
   633 00000753 31 C0                           	XOR	EAX,EAX
   634 00000755 EB DD                           	JMP	L114
   635 00000757                                 	GLOBAL	_Pac_Meet_Bean
   636 00000757                                 _Pac_Meet_Bean:
   637 00000757 55                              	PUSH	EBP
   638 00000758 89 E5                           	MOV	EBP,ESP
   639 0000075A 57                              	PUSH	EDI
   640 0000075B 56                              	PUSH	ESI
   641 0000075C 53                              	PUSH	EBX
   642 0000075D BB 00000002                     	MOV	EBX,2
   643 00000762 83 EC 20                        	SUB	ESP,32
   644 00000765 8B 45 10                        	MOV	EAX,DWORD [16+EBP]
   645 00000768 8B 7D 0C                        	MOV	EDI,DWORD [12+EBP]
   646 0000076B 8B 00                           	MOV	EAX,DWORD [EAX]
   647 0000076D 89 45 F0                        	MOV	DWORD [-16+EBP],EAX
   648 00000770 8B 48 0C                        	MOV	ECX,DWORD [12+EAX]
   649 00000773 83 C1 32                        	ADD	ECX,50
   650 00000776 89 C8                           	MOV	EAX,ECX
   651 00000778 B9 00000002                     	MOV	ECX,2
   652 0000077D 99                              	CDQ
   653 0000077E F7 FB                           	IDIV	EBX
   654 00000780 89 C6                           	MOV	ESI,EAX
   655 00000782 8B 45 F0                        	MOV	EAX,DWORD [-16+EBP]
   656 00000785 8B 58 10                        	MOV	EBX,DWORD [16+EAX]
   657 00000788 83 C3 32                        	ADD	EBX,50
   658 0000078B 89 D8                           	MOV	EAX,EBX
   659 0000078D 8B 5D 14                        	MOV	EBX,DWORD [20+EBP]
   660 00000790 99                              	CDQ
   661 00000791 F7 F9                           	IDIV	ECX
   662 00000793 8B 1B                           	MOV	EBX,DWORD [EBX]
   663 00000795 89 45 D8                        	MOV	DWORD [-40+EBP],EAX
   664 00000798 8B 43 0C                        	MOV	EAX,DWORD [12+EBX]
   665 0000079B 83 C0 32                        	ADD	EAX,50
   666 0000079E 99                              	CDQ
   667 0000079F 89 45 E8                        	MOV	DWORD [-24+EBP],EAX
   668 000007A2 F7 F9                           	IDIV	ECX
   669 000007A4 8B 4B 10                        	MOV	ECX,DWORD [16+EBX]
   670 000007A7 89 45 E4                        	MOV	DWORD [-28+EBP],EAX
   671 000007AA 83 C1 32                        	ADD	ECX,50
   672 000007AD BB 00000002                     	MOV	EBX,2
   673 000007B2 89 C8                           	MOV	EAX,ECX
   674 000007B4 2B 75 E4                        	SUB	ESI,DWORD [-28+EBP]
   675 000007B7 99                              	CDQ
   676 000007B8 F7 FB                           	IDIV	EBX
   677 000007BA 29 45 D8                        	SUB	DWORD [-40+EBP],EAX
   678 000007BD 8B 45 D8                        	MOV	EAX,DWORD [-40+EBP]
   679 000007C0 0F AF C0                        	IMUL	EAX,EAX
   680 000007C3 0F AF F6                        	IMUL	ESI,ESI
   681 000007C6 89 45 D8                        	MOV	DWORD [-40+EBP],EAX
   682 000007C9 8D 04 30                        	LEA	EAX,DWORD [EAX+ESI*1]
   683 000007CC 3D 000000F9                     	CMP	EAX,249
   684 000007D1 7F 2C                           	JG	L122
   685 000007D3 83 7F 04 01                     	CMP	DWORD [4+EDI],1
   686 000007D7 74 2E                           	JE	L125
   687 000007D9 C7 47 04 00000001               	MOV	DWORD [4+EDI],1
   688 000007E0 C7 47 1C 00000007               	MOV	DWORD [28+EDI],7
   689 000007E7                                 L124:
   690 000007E7 83 47 24 32                     	ADD	DWORD [36+EDI],50
   691 000007EB FF 75 1C                        	PUSH	DWORD [28+EBP]
   692 000007EE FF 75 18                        	PUSH	DWORD [24+EBP]
   693 000007F1 FF 75 14                        	PUSH	DWORD [20+EBP]
   694 000007F4 FF 75 08                        	PUSH	DWORD [8+EBP]
   695 000007F7 E8 000000A5                     	CALL	_Creat_Baen_Randomly
   696 000007FC 83 C4 10                        	ADD	ESP,16
   697 000007FF                                 L122:
   698 000007FF 8D 65 F4                        	LEA	ESP,DWORD [-12+EBP]
   699 00000802 5B                              	POP	EBX
   700 00000803 5E                              	POP	ESI
   701 00000804 5F                              	POP	EDI
   702 00000805 5D                              	POP	EBP
   703 00000806 C3                              	RET
   704 00000807                                 L125:
   705 00000807 83 47 1C 07                     	ADD	DWORD [28+EDI],7
   706 0000080B EB DA                           	JMP	L124
   707 0000080D                                 	GLOBAL	_Gho_Meet_Bean
   708 0000080D                                 _Gho_Meet_Bean:
   709 0000080D 55                              	PUSH	EBP
   710 0000080E 89 E5                           	MOV	EBP,ESP
   711 00000810 57                              	PUSH	EDI
   712 00000811 56                              	PUSH	ESI
   713 00000812 53                              	PUSH	EBX
   714 00000813 BB 00000002                     	MOV	EBX,2
   715 00000818 83 EC 1C                        	SUB	ESP,28
   716 0000081B 8B 45 10                        	MOV	EAX,DWORD [16+EBP]
   717 0000081E 8B 00                           	MOV	EAX,DWORD [EAX]
   718 00000820 89 45 F0                        	MOV	DWORD [-16+EBP],EAX
   719 00000823 8B 48 0C                        	MOV	ECX,DWORD [12+EAX]
   720 00000826 8B 7D F0                        	MOV	EDI,DWORD [-16+EBP]
   721 00000829 83 C1 32                        	ADD	ECX,50
   722 0000082C 89 C8                           	MOV	EAX,ECX
   723 0000082E B9 00000002                     	MOV	ECX,2
   724 00000833 99                              	CDQ
   725 00000834 F7 FB                           	IDIV	EBX
   726 00000836 8B 5F 10                        	MOV	EBX,DWORD [16+EDI]
   727 00000839 89 C6                           	MOV	ESI,EAX
   728 0000083B 83 C3 32                        	ADD	EBX,50
   729 0000083E 8B 7D 14                        	MOV	EDI,DWORD [20+EBP]
   730 00000841 89 D8                           	MOV	EAX,EBX
   731 00000843 99                              	CDQ
   732 00000844 F7 F9                           	IDIV	ECX
   733 00000846 8B 3F                           	MOV	EDI,DWORD [EDI]
   734 00000848 89 C3                           	MOV	EBX,EAX
   735 0000084A 8B 47 0C                        	MOV	EAX,DWORD [12+EDI]
   736 0000084D 83 C0 32                        	ADD	EAX,50
   737 00000850 99                              	CDQ
   738 00000851 89 45 E8                        	MOV	DWORD [-24+EBP],EAX
   739 00000854 F7 F9                           	IDIV	ECX
   740 00000856 8B 4F 10                        	MOV	ECX,DWORD [16+EDI]
   741 00000859 89 45 E4                        	MOV	DWORD [-28+EBP],EAX
   742 0000085C 83 C1 32                        	ADD	ECX,50
   743 0000085F BF 00000002                     	MOV	EDI,2
   744 00000864 89 C8                           	MOV	EAX,ECX
   745 00000866 2B 75 E4                        	SUB	ESI,DWORD [-28+EBP]
   746 00000869 99                              	CDQ
   747 0000086A F7 FF                           	IDIV	EDI
   748 0000086C 29 C3                           	SUB	EBX,EAX
   749 0000086E 0F AF F6                        	IMUL	ESI,ESI
   750 00000871 0F AF DB                        	IMUL	EBX,EBX
   751 00000874 8D 04 33                        	LEA	EAX,DWORD [EBX+ESI*1]
   752 00000877 3D 000000F9                     	CMP	EAX,249
   753 0000087C 7E 0B                           	JLE	L128
   754 0000087E 83 C8 FF                        	OR	EAX,-1
   755 00000881                                 L126:
   756 00000881 8D 65 F4                        	LEA	ESP,DWORD [-12+EBP]
   757 00000884 5B                              	POP	EBX
   758 00000885 5E                              	POP	ESI
   759 00000886 5F                              	POP	EDI
   760 00000887 5D                              	POP	EBP
   761 00000888 C3                              	RET
   762 00000889                                 L128:
   763 00000889 FF 75 1C                        	PUSH	DWORD [28+EBP]
   764 0000088C FF 75 18                        	PUSH	DWORD [24+EBP]
   765 0000088F FF 75 14                        	PUSH	DWORD [20+EBP]
   766 00000892 FF 75 08                        	PUSH	DWORD [8+EBP]
   767 00000895 E8 00000007                     	CALL	_Creat_Baen_Randomly
   768 0000089A B8 00000001                     	MOV	EAX,1
   769 0000089F EB E0                           	JMP	L126
   770 000008A1                                 	GLOBAL	_Creat_Baen_Randomly
   771 000008A1                                 _Creat_Baen_Randomly:
   772 000008A1 55                              	PUSH	EBP
   773 000008A2 89 E5                           	MOV	EBP,ESP
   774 000008A4 57                              	PUSH	EDI
   775 000008A5 56                              	PUSH	ESI
   776 000008A6 53                              	PUSH	EBX
   777 000008A7 83 EC 18                        	SUB	ESP,24
   778 000008AA 8B 35 [00000000]                	MOV	ESI,DWORD [_rand_indix]
   779 000008B0 8B 45 08                        	MOV	EAX,DWORD [8+EBP]
   780 000008B3 8B 55 0C                        	MOV	EDX,DWORD [12+EBP]
   781 000008B6 8B 4D 10                        	MOV	ECX,DWORD [16+EBP]
   782 000008B9 89 45 F0                        	MOV	DWORD [-16+EBP],EAX
   783 000008BC 89 55 EC                        	MOV	DWORD [-20+EBP],EDX
   784 000008BF 89 F0                           	MOV	EAX,ESI
   785 000008C1 BA 00000064                     	MOV	EDX,100
   786 000008C6 89 4D DC                        	MOV	DWORD [-36+EBP],ECX
   787 000008C9 8B 5D 14                        	MOV	EBX,DWORD [20+EBP]
   788 000008CC 89 D1                           	MOV	ECX,EDX
   789 000008CE 99                              	CDQ
   790 000008CF F7 F9                           	IDIV	ECX
   791 000008D1 8D 46 01                        	LEA	EAX,DWORD [1+ESI]
   792 000008D4 B9 0000000A                     	MOV	ECX,10
   793 000008D9 A3 [00000000]                   	MOV	DWORD [_rand_indix],EAX
   794 000008DE 8B 3C 95 [00000000]             	MOV	EDI,DWORD [_fake_rand+EDX*4]
   795 000008E5 8B 45 DC                        	MOV	EAX,DWORD [-36+EBP]
   796 000008E8 99                              	CDQ
   797 000008E9 F7 F9                           	IDIV	ECX
   798 000008EB 89 C6                           	MOV	ESI,EAX
   799 000008ED 89 D8                           	MOV	EAX,EBX
   800 000008EF 99                              	CDQ
   801 000008F0 F7 F9                           	IDIV	ECX
   802 000008F2 89 C3                           	MOV	EBX,EAX
   803 000008F4                                 L133:
   804 000008F4 89 F8                           	MOV	EAX,EDI
   805 000008F6 8B 55 EC                        	MOV	EDX,DWORD [-20+EBP]
   806 000008F9 0F AF FB                        	IMUL	EDI,EBX
   807 000008FC 0F AF C6                        	IMUL	EAX,ESI
   808 000008FF 8B 4D EC                        	MOV	ECX,DWORD [-20+EBP]
   809 00000902 89 BA 000009D4                  	MOV	DWORD [2516+EDX],EDI
   810 00000908 89 82 000009D0                  	MOV	DWORD [2512+EDX],EAX
   811 0000090E FF B1 000009D4                  	PUSH	DWORD [2516+ECX]
   812 00000914 FF B1 000009D0                  	PUSH	DWORD [2512+ECX]
   813 0000091A FF 75 F0                        	PUSH	DWORD [-16+EBP]
   814 0000091D E8 [00000000]                   	CALL	_check_boundary
   815 00000922 83 C4 0C                        	ADD	ESP,12
   816 00000925 48                              	DEC	EAX
   817 00000926 74 32                           	JE	L135
   818 00000928 8B 0D [00000000]                	MOV	ECX,DWORD [_rand_indix]
   819 0000092E BA 00000064                     	MOV	EDX,100
   820 00000933 89 C8                           	MOV	EAX,ECX
   821 00000935 89 D7                           	MOV	EDI,EDX
   822 00000937 99                              	CDQ
   823 00000938 F7 FF                           	IDIV	EDI
   824 0000093A 8D 41 01                        	LEA	EAX,DWORD [1+ECX]
   825 0000093D 8B 3C 95 [00000000]             	MOV	EDI,DWORD [_fake_rand+EDX*4]
   826 00000944 A3 [00000000]                   	MOV	DWORD [_rand_indix],EAX
   827 00000949 83 F8 64                        	CMP	EAX,100
   828 0000094C 75 A6                           	JNE	L133
   829 0000094E C7 05 [00000000] 00000000       	MOV	DWORD [_rand_indix],0
   830 00000958 EB 9A                           	JMP	L133
   831 0000095A                                 L135:
   832 0000095A A1 [00000000]                   	MOV	EAX,DWORD [_rand_indix]
   833 0000095F BA 00000014                     	MOV	EDX,20
   834 00000964 89 D7                           	MOV	EDI,EDX
   835 00000966 99                              	CDQ
   836 00000967 F7 FF                           	IDIV	EDI
   837 00000969 8D 42 07                        	LEA	EAX,DWORD [7+EDX]
   838 0000096C 8B 55 EC                        	MOV	EDX,DWORD [-20+EBP]
   839 0000096F 88 82 000009CC                  	MOV	BYTE [2508+EDX],AL
   840 00000975 6A 00                           	PUSH	0
   841 00000977 0F B6 C0                        	MOVZX	EAX,AL
   842 0000097A 50                              	PUSH	EAX
   843 0000097B 6A 00                           	PUSH	0
   844 0000097D 6A 32                           	PUSH	50
   845 0000097F 6A 32                           	PUSH	50
   846 00000981 68 [00000000]                   	PUSH	_super
   847 00000986 6A 00                           	PUSH	0
   848 00000988 6A 00                           	PUSH	0
   849 0000098A FF 32                           	PUSH	DWORD [EDX]
   850 0000098C E8 [00000000]                   	CALL	_put_figure_sht
   851 00000991 83 C4 24                        	ADD	ESP,36
   852 00000994 6A 07                           	PUSH	7
   853 00000996 8B 4D EC                        	MOV	ECX,DWORD [-20+EBP]
   854 00000999 FF 31                           	PUSH	DWORD [ECX]
   855 0000099B E8 [00000000]                   	CALL	_sheet_updown
   856 000009A0 8B 7D EC                        	MOV	EDI,DWORD [-20+EBP]
   857 000009A3 59                              	POP	ECX
   858 000009A4 8B 87 000009D4                  	MOV	EAX,DWORD [2516+EDI]
   859 000009AA 5B                              	POP	EBX
   860 000009AB 89 45 10                        	MOV	DWORD [16+EBP],EAX
   861 000009AE 8B 87 000009D0                  	MOV	EAX,DWORD [2512+EDI]
   862 000009B4 89 45 0C                        	MOV	DWORD [12+EBP],EAX
   863 000009B7 8B 07                           	MOV	EAX,DWORD [EDI]
   864 000009B9 89 45 08                        	MOV	DWORD [8+EBP],EAX
   865 000009BC 8D 65 F4                        	LEA	ESP,DWORD [-12+EBP]
   866 000009BF 5B                              	POP	EBX
   867 000009C0 5E                              	POP	ESI
   868 000009C1 5F                              	POP	EDI
   869 000009C2 5D                              	POP	EBP
   870 000009C3 E9 [00000000]                   	JMP	_sheet_slide
